target datalayout = "e-m:e-p270:32:32-p271:32:32-p272:64:64-i64:64-i128:128-f80:128-n8:16:32:64-S128"
target triple = "x86_64-pc-linux-gnu"

@stdout = external global ptr, align 8
@_ZN7testingL20kTestShardStatusFileE = internal constant [24 x i8] c"GTEST_SHARD_STATUS_FILE\00", align 16
@.str.290 = private unnamed_addr constant [2 x i8] c"w\00", align 1
@.str.291 = private unnamed_addr constant [94 x i8] c"Could not write to the test shard status file \22%s\22 specified by the %s environment variable.\0A\00", align 1

; Function Attrs: inlinehint mustprogress uwtable
define linkonce_odr hidden noundef ptr @_ZN7testing8internal5posix5FOpenEPKcS3_(ptr noundef %0, ptr noundef %1) #7 comdat {
  %3 = alloca ptr, align 8
  %4 = alloca ptr, align 8
  store ptr %0, ptr %3, align 8, !tbaa !8
  store ptr %1, ptr %4, align 8, !tbaa !8
  %5 = load ptr, ptr %3, align 8, !tbaa !8
  %6 = load ptr, ptr %4, align 8, !tbaa !8
  %7 = call noalias ptr @fopen(ptr noundef %5, ptr noundef %6)
  ret ptr %7
}

; Function Attrs: inlinehint mustprogress nounwind uwtable
define linkonce_odr hidden noundef ptr @_ZN7testing8internal5posix6GetEnvEPKc(ptr noundef %0) #10 comdat {
  %2 = alloca ptr, align 8
  store ptr %0, ptr %2, align 8, !tbaa !8
  %3 = load ptr, ptr %2, align 8, !tbaa !8
  %4 = call ptr @getenv(ptr noundef %3) #3
  ret ptr %4
}

; Function Attrs: mustprogress uwtable
define hidden void @_ZN7testing8internal30WriteToShardStatusFileIfNeededEv() #4 {
  %1 = alloca ptr, align 8
  %2 = alloca ptr, align 8
  call void @llvm.lifetime.start.p0(i64 8, ptr %1) #3
  %3 = call noundef ptr @_ZN7testing8internal5posix6GetEnvEPKc(ptr noundef @_ZN7testingL20kTestShardStatusFileE)
  store ptr %3, ptr %1, align 8, !tbaa !8
  %4 = load ptr, ptr %1, align 8, !tbaa !8
  %5 = icmp ne ptr %4, null
  br i1 %5, label %6, label %18

6:                                                ; preds = %0
  call void @llvm.lifetime.start.p0(i64 8, ptr %2) #3
  %7 = load ptr, ptr %1, align 8, !tbaa !8
  %8 = call noundef ptr @_ZN7testing8internal5posix5FOpenEPKcS3_(ptr noundef %7, ptr noundef @.str.290)
  store ptr %8, ptr %2, align 8, !tbaa !19
  %9 = load ptr, ptr %2, align 8, !tbaa !19
  %10 = icmp eq ptr %9, null
  br i1 %10, label %11, label %15

11:                                               ; preds = %6
  %12 = load ptr, ptr %1, align 8, !tbaa !8
  call void (i32, ptr, ...) @_ZN7testing8internalL13ColoredPrintfENS0_12_GLOBAL__N_110GTestColorEPKcz(i32 noundef 1, ptr noundef @.str.291, ptr noundef %12, ptr noundef @_ZN7testingL20kTestShardStatusFileE)
  %13 = load ptr, ptr @stdout, align 8, !tbaa !19
  %14 = call i32 @fflush(ptr noundef %13)
  call void @exit(i32 noundef 1) #32
  unreachable

15:                                               ; preds = %6
  %16 = load ptr, ptr %2, align 8, !tbaa !19
  %17 = call i32 @fclose(ptr noundef %16)
  call void @llvm.lifetime.end.p0(i64 8, ptr %2) #3
  br label %18

18:                                               ; preds = %15, %0
  call void @llvm.lifetime.end.p0(i64 8, ptr %1) #3
  ret void
}