; Function Attrs: mustprogress nounwind uwtable
define hidden void @_ZN7testing8internal30WriteToShardStatusFileIfNeededEv() local_unnamed_addr #5 {
  %1 = tail call noundef ptr @getenv(ptr noundef nonnull @_ZN7testingL20kTestShardStatusFileE) #58
  %.not = icmp eq ptr %1, null
  br i1 %.not, label %10, label %2

2:                                                ; preds = %0
  %3 = tail call noalias noundef ptr @fopen(ptr noundef nonnull %1, ptr noundef nonnull @.str.290)
  %4 = icmp eq ptr %3, null
  br i1 %4, label %5, label %8

5:                                                ; preds = %2
  tail call void (i32, ptr, ...) @_ZN7testing8internalL13ColoredPrintfENS0_12_GLOBAL__N_110GTestColorEPKcz(i32 noundef 1, ptr noundef nonnull @.str.291, ptr noundef nonnull %1, ptr noundef nonnull @_ZN7testingL20kTestShardStatusFileE)
  %6 = load ptr, ptr @stdout, align 8, !tbaa !34
  %7 = tail call i32 @fflush(ptr noundef %6)
  tail call void @exit(i32 noundef 1) #65
  unreachable

8:                                                ; preds = %2
  %9 = tail call i32 @fclose(ptr noundef nonnull %3)
  br label %10

10:                                               ; preds = %8, %0
  ret void
}